; Function Attrs: nounwind uwtable
define void @dt_selection_select_unaltered(ptr noundef captures(none) %0) local_unnamed_addr #1 {
  %2 = load ptr, ptr %0, align 8, !tbaa !6
  %.not = icmp eq ptr %2, null
  br i1 %.not, label %44, label %3

3:                                                ; preds = %1
  %4 = load i32, ptr getelementptr inbounds nuw (i8, ptr @darktable, i64 8), align 8, !tbaa !54
  %5 = and i32 %4, 256
  %.not3 = icmp eq i32 %5, 0
  br i1 %.not3, label %7, label %6

6:                                                ; preds = %3
  tail call void (ptr, ...) @dt_print_ext(ptr noundef nonnull @.str.5, ptr noundef nonnull @.str.3, i32 noundef 447, ptr noundef nonnull @__FUNCTION__.dt_selection_select_unaltered, ptr noundef nonnull @.str.8) #8
  br label %7

7:                                                ; preds = %3, %6
  %8 = load ptr, ptr getelementptr inbounds nuw (i8, ptr @darktable, i64 136), align 8, !tbaa !56
  %9 = tail call ptr @dt_database_get(ptr noundef %8) #8
  %10 = tail call i32 @sqlite3_exec(ptr noundef %9, ptr noundef nonnull @.str.8, ptr noundef null, ptr noundef null, ptr noundef null) #8
  %.not4 = icmp eq i32 %10, 0
  br i1 %.not4, label %17, label %11

11:                                               ; preds = %7
  %12 = load ptr, ptr @stderr, align 8, !tbaa !57
  %13 = load ptr, ptr getelementptr inbounds nuw (i8, ptr @darktable, i64 136), align 8, !tbaa !56
  %14 = tail call ptr @dt_database_get(ptr noundef %13) #8
  %15 = tail call ptr @sqlite3_errmsg(ptr noundef %14) #8
  %16 = tail call i32 (ptr, ptr, ...) @fprintf(ptr noundef %12, ptr noundef nonnull @.str.7, ptr noundef nonnull @.str.3, i32 noundef 447, ptr noundef nonnull @__FUNCTION__.dt_selection_select_unaltered, ptr noundef nonnull @.str.8, ptr noundef %15) #9
  br label %17

17:                                               ; preds = %11, %7
  %18 = load i32, ptr getelementptr inbounds nuw (i8, ptr @darktable, i64 8), align 8, !tbaa !54
  %19 = and i32 %18, 256
  %.not5 = icmp eq i32 %19, 0
  br i1 %.not5, label %21, label %20

20:                                               ; preds = %17
  tail call void (ptr, ...) @dt_print_ext(ptr noundef nonnull @.str.5, ptr noundef nonnull @.str.3, i32 noundef 458, ptr noundef nonnull @__FUNCTION__.dt_selection_select_unaltered, ptr noundef nonnull @.str.18) #8
  br label %21

21:                                               ; preds = %17, %20
  %22 = load ptr, ptr getelementptr inbounds nuw (i8, ptr @darktable, i64 136), align 8, !tbaa !56
  %23 = tail call ptr @dt_database_get(ptr noundef %22) #8
  %24 = tail call i32 @sqlite3_exec(ptr noundef %23, ptr noundef nonnull @.str.18, ptr noundef null, ptr noundef null, ptr noundef null) #8
  %.not6 = icmp eq i32 %24, 0
  br i1 %.not6, label %31, label %25

25:                                               ; preds = %21
  %26 = load ptr, ptr @stderr, align 8, !tbaa !57
  %27 = load ptr, ptr getelementptr inbounds nuw (i8, ptr @darktable, i64 136), align 8, !tbaa !56
  %28 = tail call ptr @dt_database_get(ptr noundef %27) #8
  %29 = tail call ptr @sqlite3_errmsg(ptr noundef %28) #8
  %30 = tail call i32 (ptr, ptr, ...) @fprintf(ptr noundef %26, ptr noundef nonnull @.str.7, ptr noundef nonnull @.str.3, i32 noundef 458, ptr noundef nonnull @__FUNCTION__.dt_selection_select_unaltered, ptr noundef nonnull @.str.18, ptr noundef %29) #9
  br label %31

31:                                               ; preds = %25, %21
  %32 = getelementptr inbounds nuw i8, ptr %0, i64 8
  store i32 0, ptr %32, align 8, !tbaa !50
  tail call void @dt_act_on_reset_cache(i32 noundef 1) #8
  tail call void @dt_act_on_reset_cache(i32 noundef 0) #8
  %33 = load i32, ptr getelementptr inbounds nuw (i8, ptr @darktable, i64 3128), align 8, !tbaa !53
  %34 = and i32 %33, 1
  %35 = icmp ne i32 %34, 0
  %36 = load i32, ptr getelementptr inbounds nuw (i8, ptr @darktable, i64 3164), align 4
  %37 = icmp ne i32 %36, 0
  %or.cond.i = select i1 %35, i1 %37, i1 false
  br i1 %or.cond.i, label %38, label %_selection_raise_signal.exit

38:                                               ; preds = %31
  %39 = load i32, ptr getelementptr inbounds nuw (i8, ptr @darktable, i64 8), align 8, !tbaa !54
  %40 = and i32 %39, 1048576
  %.not.i = icmp eq i32 %40, 0
  br i1 %.not.i, label %_selection_raise_signal.exit, label %41

41:                                               ; preds = %38
  tail call void (ptr, ...) @dt_print_ext(ptr noundef nonnull @.str.26, ptr noundef nonnull @.str.27, ptr noundef nonnull @.str.3, i32 noundef 48, ptr noundef nonnull @__FUNCTION__._selection_raise_signal) #8
  br label %_selection_raise_signal.exit

_selection_raise_signal.exit:                     ; preds = %31, %38, %41
  %42 = load ptr, ptr getelementptr inbounds nuw (i8, ptr @darktable, i64 96), align 8, !tbaa !55
  tail call void (ptr, i32, ...) @dt_control_signal_raise(ptr noundef %42, i32 noundef 8) #8
  %43 = load ptr, ptr getelementptr inbounds nuw (i8, ptr @darktable, i64 160), align 8, !tbaa !13
  tail call void @dt_collection_hint_message(ptr noundef %43) #8
  br label %44

44:                                               ; preds = %1, %_selection_raise_signal.exit
  ret void
}